Certificate Request:
    Data:
        Version: 0 (0x0)
        Subject: C=US, ST=CA, L=Palo Alto, O=Open vSwitch, OU=Open vSwitch certifier, CN=tests/pki/test2 id:3856c86e-e3da-4843-84f6-9fe495330614
        Subject Public Key Info:
            Public Key Algorithm: rsaEncryption
                Public-Key: (2048 bit)
                Modulus:
                    00:cf:4c:69:64:e7:0f:2f:01:f5:a1:6b:18:1a:d2:
                    3b:0d:27:b4:9b:c3:53:90:bd:ee:a8:c9:eb:f1:fc:
                    4e:77:ae:f3:4f:9b:5f:0b:68:9b:cf:68:3a:5f:eb:
                    98:80:a9:b2:60:bc:73:85:b7:9e:71:08:72:7e:79:
                    c6:b8:37:b1:62:3c:3a:b3:8e:5a:9d:2f:8f:1b:22:
                    ed:fa:16:22:03:3b:7f:d3:a1:23:72:38:b8:b3:9b:
                    8f:ee:09:dc:18:08:2f:fb:6c:d8:40:ac:ad:08:10:
                    83:ad:61:f7:c7:f8:89:8c:f1:c5:95:4a:48:19:b4:
                    6e:53:fe:d5:d0:c3:cd:f5:ba:f7:28:18:bc:34:29:
                    ab:09:a5:27:81:63:ed:18:7b:9c:c3:d2:fb:6e:fd:
                    1f:69:a6:85:cc:98:cb:dd:7b:22:40:04:43:c7:2a:
                    95:79:83:69:74:b5:33:37:6f:fd:ef:64:22:33:00:
                    e0:d2:7e:13:c7:ee:43:c4:27:bb:5e:44:94:0d:04:
                    d5:2c:fc:d6:fa:7d:e8:d3:42:ab:19:29:da:0b:f8:
                    18:ac:0e:41:5b:a1:2c:ab:50:76:64:48:fa:4e:e8:
                    46:0b:4f:03:fc:fd:b9:f3:d4:0f:ee:af:d4:b7:4f:
                    78:6b:a6:a5:92:74:c5:ff:34:b9:84:55:de:4e:ee:
                    d8:47
                Exponent: 65537 (0x10001)
        Attributes:
            a0:00
    Signature Algorithm: sha1WithRSAEncryption
        a2:65:a8:d2:e7:e0:7b:69:35:f0:db:2f:b4:10:14:97:9a:51:
        0b:fd:0d:da:84:76:f2:00:92:8a:06:cb:c9:c6:8f:25:a2:77:
        d2:47:00:1e:6a:cc:98:8d:c9:85:1a:5a:6c:64:a5:99:05:19:
        c5:16:be:52:63:b9:c0:97:0b:b5:71:55:b2:02:1b:13:bf:f6:
        e4:05:b2:a0:de:83:c5:47:4d:99:dd:0a:46:1d:91:57:30:82:
        fe:68:1b:50:cc:da:c9:b0:49:c9:50:a8:e7:9e:56:32:5e:5f:
        5d:27:35:44:92:57:9d:eb:7c:92:9f:b8:a9:ca:d0:86:bd:0b:
        3a:4e:63:33:34:da:07:fb:a8:9d:e9:fb:7c:55:5c:95:ea:89:
        4c:2d:61:e0:e4:76:82:e7:9c:4c:fc:2a:14:c0:0d:4c:ae:5d:
        06:8b:00:4f:11:a2:1d:d9:b4:c0:bf:c2:7a:5c:f7:3e:47:ba:
        6b:c0:20:7d:cb:b9:48:11:08:00:5b:5a:c6:06:24:84:d1:94:
        a9:e6:4a:60:41:76:56:0a:01:43:32:3a:c6:49:a9:a7:1c:2b:
        07:24:9f:0a:52:3e:24:79:64:a5:57:70:de:3f:7c:87:e2:80:
        28:08:41:89:e6:37:11:da:cf:7a:73:d1:9d:47:24:98:6d:26:
        b5:33:ff:ef
-----BEGIN CERTIFICATE REQUEST-----
MIIC7jCCAdYCAQAwgagxCzAJBgNVBAYTAlVTMQswCQYDVQQIEwJDQTESMBAGA1UE
BxMJUGFsbyBBbHRvMRUwEwYDVQQKEwxPcGVuIHZTd2l0Y2gxHzAdBgNVBAsTFk9w
ZW4gdlN3aXRjaCBjZXJ0aWZpZXIxQDA+BgNVBAMTN3Rlc3RzL3BraS90ZXN0MiBp
ZDozODU2Yzg2ZS1lM2RhLTQ4NDMtODRmNi05ZmU0OTUzMzA2MTQwggEiMA0GCSqG
SIb3DQEBAQUAA4IBDwAwggEKAoIBAQDPTGlk5w8vAfWhaxga0jsNJ7Sbw1OQve6o
yevx/E53rvNPm18LaJvPaDpf65iAqbJgvHOFt55xCHJ+eca4N7FiPDqzjlqdL48b
Iu36FiIDO3/ToSNyOLizm4/uCdwYCC/7bNhArK0IEIOtYffH+ImM8cWVSkgZtG5T
/tXQw831uvcoGLw0KasJpSeBY+0Ye5zD0vtu/R9ppoXMmMvdeyJABEPHKpV5g2l0
tTM3b/3vZCIzAODSfhPH7kPEJ7teRJQNBNUs/Nb6fejTQqsZKdoL+BisDkFboSyr
UHZkSPpO6EYLTwP8/bnz1A/ur9S3T3hrpqWSdMX/NLmEVd5O7thHAgMBAAGgADAN
BgkqhkiG9w0BAQUFAAOCAQEAomWo0ufge2k18NsvtBAUl5pRC/0N2oR28gCSigbL
ycaPJaJ30kcAHmrMmI3JhRpabGSlmQUZxRa+UmO5wJcLtXFVsgIbE7/25AWyoN6D
xUdNmd0KRh2RVzCC/mgbUMzaybBJyVCo555WMl5fXSc1RJJXnet8kp+4qcrQhr0L
Ok5jMzTaB/uonen7fFVcleqJTC1h4OR2guecTPwqFMANTK5dBosATxGiHdm0wL/C
elz3Pke6a8Agfcu5SBEIAFtaxgYkhNGUqeZKYEF2VgoBQzI6xkmppxwrBySfClI+
JHlkpVdw3j98h+KAKAhBieY3EdrPenPRnUckmG0mtTP/7w==
-----END CERTIFICATE REQUEST-----
