Certificate Request:
    Data:
        Version: 0 (0x0)
        Subject: C=US, ST=CA, L=Palo Alto, O=Open vSwitch, OU=Open vSwitch certifier, CN=tests/pki/test id:e1236d24-d3be-4905-90ca-413e47b9e33c
        Subject Public Key Info:
            Public Key Algorithm: rsaEncryption
                Public-Key: (2048 bit)
                Modulus:
                    00:c0:01:26:ac:8c:98:52:a2:c3:ee:6f:32:cf:2c:
                    14:d5:6d:03:c6:7c:93:3c:4a:6a:38:b2:25:60:01:
                    25:81:f8:08:3c:e1:d4:50:02:9e:fa:3f:da:73:94:
                    a8:77:9c:78:be:e1:50:01:b8:93:3c:22:78:f6:d7:
                    38:25:90:7c:8a:1d:2a:b1:df:4b:ce:f4:ef:e9:10:
                    ef:0a:ec:f7:ff:a0:f2:47:70:69:2a:01:21:ba:32:
                    71:bd:fa:0a:c9:3f:64:c5:82:c8:a0:3b:0b:67:42:
                    66:b0:57:d0:80:f1:eb:26:93:f2:68:ef:ec:51:b2:
                    40:1e:ef:8f:67:c8:27:ae:ad:d2:6a:bc:7b:5a:8f:
                    3a:d5:d7:6c:ce:e0:84:c6:95:17:f3:91:36:d8:c8:
                    03:da:c9:50:67:48:f0:16:7a:03:a3:9c:af:53:6d:
                    f9:75:97:66:2f:05:98:d2:1b:57:bc:45:01:66:e3:
                    de:e7:32:f4:23:fc:59:99:16:16:8b:82:cc:67:c7:
                    30:75:72:e8:78:d0:b8:7a:63:29:ce:d8:a6:17:ff:
                    3b:de:8d:9c:e6:d2:f6:90:0d:a6:d6:05:39:c4:35:
                    d9:47:f9:6f:8c:b8:6e:84:8e:d1:ef:51:26:49:10:
                    8f:d3:c9:ba:81:59:ba:d3:1a:e7:4d:e6:92:ba:fa:
                    7c:35
                Exponent: 65537 (0x10001)
        Attributes:
            a0:00
    Signature Algorithm: sha1WithRSAEncryption
        b8:44:a4:11:9b:28:b5:a0:70:e1:0f:61:26:24:77:e4:a3:44:
        68:74:8a:e8:e8:15:e3:85:64:6d:85:cb:35:b4:14:3d:95:2b:
        14:b2:d5:17:92:14:ef:2c:7c:72:9e:33:a8:7e:ff:1a:25:fe:
        f4:0e:0d:6a:17:e4:fb:70:45:64:3b:e6:47:97:e6:95:de:0c:
        30:00:f9:5e:f0:76:71:6c:3b:d0:2b:ef:cc:d9:a9:84:8b:c7:
        02:48:2b:16:cb:0e:e0:53:97:26:cd:32:45:ca:37:ba:36:31:
        06:80:5d:05:28:6d:9a:13:63:60:2c:09:8e:f7:99:4e:30:31:
        2a:85:9f:ff:27:5f:22:ca:3e:01:87:23:76:35:70:9e:16:8c:
        ab:79:be:06:d9:8e:a3:2d:c4:42:3f:ab:e1:62:13:71:2f:04:
        db:84:28:47:cc:ab:a5:d7:5b:f9:9a:23:4f:ec:0c:07:cd:94:
        5d:21:11:4e:9c:b1:59:ca:06:7a:99:36:8b:e4:20:3e:4e:f2:
        17:5a:12:ba:8a:03:fe:c9:21:71:41:cb:99:c7:29:d5:b8:1b:
        0a:e8:30:a9:c6:63:2e:7e:98:1a:30:7a:fe:ea:c6:7f:ed:c2:
        b2:e8:4d:f7:fd:79:8a:64:64:60:78:fc:ea:ca:25:b2:6a:fa:
        eb:6e:03:bf
-----BEGIN CERTIFICATE REQUEST-----
MIIC7TCCAdUCAQAwgacxCzAJBgNVBAYTAlVTMQswCQYDVQQIEwJDQTESMBAGA1UE
BxMJUGFsbyBBbHRvMRUwEwYDVQQKEwxPcGVuIHZTd2l0Y2gxHzAdBgNVBAsTFk9w
ZW4gdlN3aXRjaCBjZXJ0aWZpZXIxPzA9BgNVBAMTNnRlc3RzL3BraS90ZXN0IGlk
OmUxMjM2ZDI0LWQzYmUtNDkwNS05MGNhLTQxM2U0N2I5ZTMzYzCCASIwDQYJKoZI
hvcNAQEBBQADggEPADCCAQoCggEBAMABJqyMmFKiw+5vMs8sFNVtA8Z8kzxKajiy
JWABJYH4CDzh1FACnvo/2nOUqHeceL7hUAG4kzwiePbXOCWQfIodKrHfS8707+kQ
7wrs9/+g8kdwaSoBIboycb36Csk/ZMWCyKA7C2dCZrBX0IDx6yaT8mjv7FGyQB7v
j2fIJ66t0mq8e1qPOtXXbM7ghMaVF/ORNtjIA9rJUGdI8BZ6A6Ocr1Nt+XWXZi8F
mNIbV7xFAWbj3ucy9CP8WZkWFouCzGfHMHVy6HjQuHpjKc7Yphf/O96NnObS9pAN
ptYFOcQ12Uf5b4y4boSO0e9RJkkQj9PJuoFZutMa503mkrr6fDUCAwEAAaAAMA0G
CSqGSIb3DQEBBQUAA4IBAQC4RKQRmyi1oHDhD2EmJHfko0RodIro6BXjhWRthcs1
tBQ9lSsUstUXkhTvLHxynjOofv8aJf70Dg1qF+T7cEVkO+ZHl+aV3gwwAPle8HZx
bDvQK+/M2amEi8cCSCsWyw7gU5cmzTJFyje6NjEGgF0FKG2aE2NgLAmO95lOMDEq
hZ//J18iyj4BhyN2NXCeFoyreb4G2Y6jLcRCP6vhYhNxLwTbhChHzKul11v5miNP
7AwHzZRdIRFOnLFZygZ6mTaL5CA+TvIXWhK6igP+ySFxQcuZxynVuBsK6DCpxmMu
fpgaMHr+6sZ/7cKy6E33/XmKZGRgePzqyiWyavrrbgO/
-----END CERTIFICATE REQUEST-----
