Certificate:
    Data:
        Version: 1 (0x0)
        Serial Number: 1 (0x1)
        Signature Algorithm: md5WithRSAEncryption
        Issuer: C=US, ST=CA, O=Open vSwitch, OU=switchca, CN=OVS switchca CA Certificate (2013 Sep 21 19:22:17)
        Validity
            Not Before: Sep 21 23:22:18 2013 GMT
            Not After : Sep 21 23:22:18 2019 GMT
        Subject: C=US, ST=CA, O=Open vSwitch, OU=switchca, CN=OVS switchca CA Certificate (2013 Sep 21 19:22:17)
        Subject Public Key Info:
            Public Key Algorithm: rsaEncryption
                Public-Key: (2048 bit)
                Modulus:
                    00:d9:a9:de:65:bc:5a:d1:2d:da:ba:b5:de:42:10:
                    d1:6b:2e:01:26:e2:09:67:8a:c4:cd:fd:29:ba:19:
                    1d:74:88:83:b2:6f:b4:96:56:01:4a:ca:bf:ee:c8:
                    cb:57:d4:8c:c0:8e:81:b8:a5:55:26:0b:91:bd:a3:
                    26:ae:3b:57:bb:34:57:02:1b:bb:66:00:b5:d5:2b:
                    17:46:7d:ea:83:69:99:a9:6c:73:4f:83:d1:64:ec:
                    25:88:c9:49:e1:13:1e:87:bb:59:7a:dc:7e:ad:35:
                    01:ed:be:4c:ef:3c:c7:10:6b:cb:cb:b1:2a:fa:62:
                    ef:b7:ae:72:a6:b4:4f:27:e0:8f:c1:56:6e:a7:9b:
                    14:7f:39:89:e8:a6:bb:07:b5:28:b6:e5:9b:4a:5d:
                    d3:34:77:a8:84:9f:84:c2:0e:45:6f:70:16:d1:89:
                    94:7c:ac:16:79:77:8b:01:4a:88:40:f4:f5:66:50:
                    f6:70:b2:f6:5f:1c:2e:14:5d:8b:52:67:eb:1d:0d:
                    79:0e:7c:9f:8e:96:d2:d5:d4:37:47:ed:54:49:cf:
                    a5:a5:37:da:cd:57:f9:17:28:52:9c:d0:51:bb:9c:
                    c9:b8:0b:1a:bb:7e:2a:42:9e:06:12:f5:ff:fa:87:
                    8f:f7:44:5f:f0:76:2a:f0:0d:4b:d5:e5:81:94:5c:
                    a7:af
                Exponent: 65537 (0x10001)
    Signature Algorithm: md5WithRSAEncryption
        c5:e0:9e:a0:6f:94:df:03:ed:31:4e:22:12:f2:35:bb:db:3e:
        0e:f7:88:e0:7b:63:e9:aa:ad:30:71:de:86:6f:f0:5e:93:ea:
        76:cf:66:7e:07:32:ac:6b:2d:0b:2e:a1:2f:4e:f8:01:3d:d9:
        fa:b3:39:2d:2e:5e:72:ff:29:eb:ce:7c:93:6a:e1:da:1d:5f:
        03:cb:53:aa:72:e0:62:c9:cc:94:1e:73:ae:f2:c5:b0:33:53:
        28:dc:f0:ce:e5:18:5f:c4:83:29:c7:e0:0b:31:01:bf:92:8d:
        8d:d4:07:83:c1:5a:2a:b1:3d:67:94:c5:65:23:17:b8:71:d6:
        33:78:f7:6b:5b:02:0b:df:dd:fd:b1:c7:50:bb:e1:15:62:95:
        da:45:f9:e9:b4:0b:1a:6f:e1:fe:ae:e0:97:e0:dd:d5:66:f8:
        12:d2:7b:81:d5:82:8e:a9:99:6a:45:d8:4f:97:0b:a7:be:7d:
        a9:01:e7:b2:d4:08:a5:2e:f8:d5:ab:a3:a7:be:61:05:9c:78:
        bf:bf:84:bb:5f:ca:e6:b3:24:cb:2e:85:cd:cb:35:2f:61:af:
        d9:b9:e2:c4:00:c9:e3:44:c7:0b:e5:c5:9e:39:5c:13:34:8e:
        a3:27:36:23:c4:ff:8f:4c:69:d2:ef:0d:42:e7:46:7d:6b:82:
        0f:e5:93:b8
-----BEGIN CERTIFICATE-----
MIIDeDCCAmACAQEwDQYJKoZIhvcNAQEEBQAwgYExCzAJBgNVBAYTAlVTMQswCQYD
VQQIEwJDQTEVMBMGA1UEChMMT3BlbiB2U3dpdGNoMREwDwYDVQQLEwhzd2l0Y2hj
YTE7MDkGA1UEAxMyT1ZTIHN3aXRjaGNhIENBIENlcnRpZmljYXRlICgyMDEzIFNl
cCAyMSAxOToyMjoxNykwHhcNMTMwOTIxMjMyMjE4WhcNMTkwOTIxMjMyMjE4WjCB
gTELMAkGA1UEBhMCVVMxCzAJBgNVBAgTAkNBMRUwEwYDVQQKEwxPcGVuIHZTd2l0
Y2gxETAPBgNVBAsTCHN3aXRjaGNhMTswOQYDVQQDEzJPVlMgc3dpdGNoY2EgQ0Eg
Q2VydGlmaWNhdGUgKDIwMTMgU2VwIDIxIDE5OjIyOjE3KTCCASIwDQYJKoZIhvcN
AQEBBQADggEPADCCAQoCggEBANmp3mW8WtEt2rq13kIQ0WsuASbiCWeKxM39KboZ
HXSIg7JvtJZWAUrKv+7Iy1fUjMCOgbilVSYLkb2jJq47V7s0VwIbu2YAtdUrF0Z9
6oNpmalsc0+D0WTsJYjJSeETHoe7WXrcfq01Ae2+TO88xxBry8uxKvpi77eucqa0
Tyfgj8FWbqebFH85ieimuwe1KLblm0pd0zR3qISfhMIORW9wFtGJlHysFnl3iwFK
iED09WZQ9nCy9l8cLhRdi1Jn6x0NeQ58n46W0tXUN0ftVEnPpaU32s1X+RcoUpzQ
UbucybgLGrt+KkKeBhL1//qHj/dEX/B2KvANS9XlgZRcp68CAwEAATANBgkqhkiG
9w0BAQQFAAOCAQEAxeCeoG+U3wPtMU4iEvI1u9s+DveI4Htj6aqtMHHehm/wXpPq
ds9mfgcyrGstCy6hL074AT3Z+rM5LS5ecv8p6858k2rh2h1fA8tTqnLgYsnMlB5z
rvLFsDNTKNzwzuUYX8SDKcfgCzEBv5KNjdQHg8FaKrE9Z5TFZSMXuHHWM3j3a1sC
C9/d/bHHULvhFWKV2kX56bQLGm/h/q7gl+Dd1Wb4EtJ7gdWCjqmZakXYT5cLp759
qQHnstQIpS741aujp75hBZx4v7+Eu1/K5rMkyy6Fzcs1L2Gv2bnixADJ40THC+XF
njlcEzSOoyc2I8T/j0xp0u8NQudGfWuCD+WTuA==
-----END CERTIFICATE-----
