Certificate:
    Data:
        Version: 1 (0x0)
        Serial Number: 2 (0x2)
        Signature Algorithm: md5WithRSAEncryption
        Issuer: C=US, ST=CA, O=Open vSwitch, OU=switchca, CN=OVS switchca CA Certificate (2013 Sep 21 19:22:17)
        Validity
            Not Before: Sep 21 23:22:18 2013 GMT
            Not After : Sep 21 23:22:18 2014 GMT
        Subject: C=US, ST=CA, O=Open vSwitch, OU=Open vSwitch certifier, CN=tests/pki/test id:e1236d24-d3be-4905-90ca-413e47b9e33c
        Subject Public Key Info:
            Public Key Algorithm: rsaEncryption
                Public-Key: (2048 bit)
                Modulus:
                    00:c0:01:26:ac:8c:98:52:a2:c3:ee:6f:32:cf:2c:
                    14:d5:6d:03:c6:7c:93:3c:4a:6a:38:b2:25:60:01:
                    25:81:f8:08:3c:e1:d4:50:02:9e:fa:3f:da:73:94:
                    a8:77:9c:78:be:e1:50:01:b8:93:3c:22:78:f6:d7:
                    38:25:90:7c:8a:1d:2a:b1:df:4b:ce:f4:ef:e9:10:
                    ef:0a:ec:f7:ff:a0:f2:47:70:69:2a:01:21:ba:32:
                    71:bd:fa:0a:c9:3f:64:c5:82:c8:a0:3b:0b:67:42:
                    66:b0:57:d0:80:f1:eb:26:93:f2:68:ef:ec:51:b2:
                    40:1e:ef:8f:67:c8:27:ae:ad:d2:6a:bc:7b:5a:8f:
                    3a:d5:d7:6c:ce:e0:84:c6:95:17:f3:91:36:d8:c8:
                    03:da:c9:50:67:48:f0:16:7a:03:a3:9c:af:53:6d:
                    f9:75:97:66:2f:05:98:d2:1b:57:bc:45:01:66:e3:
                    de:e7:32:f4:23:fc:59:99:16:16:8b:82:cc:67:c7:
                    30:75:72:e8:78:d0:b8:7a:63:29:ce:d8:a6:17:ff:
                    3b:de:8d:9c:e6:d2:f6:90:0d:a6:d6:05:39:c4:35:
                    d9:47:f9:6f:8c:b8:6e:84:8e:d1:ef:51:26:49:10:
                    8f:d3:c9:ba:81:59:ba:d3:1a:e7:4d:e6:92:ba:fa:
                    7c:35
                Exponent: 65537 (0x10001)
    Signature Algorithm: md5WithRSAEncryption
        3b:e3:4e:a8:93:41:76:39:5d:4f:ea:6d:38:95:31:4d:3e:f5:
        8b:3e:19:49:55:c8:14:84:d3:de:cd:85:cd:ec:4d:29:6e:4e:
        31:c7:0f:af:17:c7:88:cf:4d:64:bc:13:7c:00:27:77:87:5f:
        ab:28:eb:2d:9b:36:24:a1:5e:82:6b:3b:ba:d9:7b:1f:2c:6b:
        5e:e9:5a:30:06:90:64:9d:c7:ba:41:4e:cc:05:c0:76:31:b3:
        d9:0a:ca:70:36:13:bd:9d:d3:26:a5:95:03:30:2e:b5:b9:68:
        26:09:33:4f:f8:1d:8e:7d:b8:32:d5:c7:c6:1b:87:23:44:8c:
        6a:a3:6e:44:86:d8:20:94:73:c1:8f:ac:9b:42:6b:3d:50:7c:
        5c:63:7b:39:ae:4a:d7:d9:10:1b:16:4c:42:f9:f2:84:8a:0f:
        4d:4b:ef:a7:f3:ba:04:f5:a6:68:55:6c:6f:5b:ba:43:1e:f0:
        bc:1f:ac:38:ff:6f:46:9f:cc:89:b5:f2:ee:c0:90:71:27:92:
        5b:6f:ec:eb:72:99:ab:29:40:81:b7:a6:55:d2:3f:99:ba:21:
        49:20:97:66:cf:31:73:4b:ab:03:ec:28:e4:87:df:95:47:b5:
        33:a1:3f:9b:e1:48:30:a9:46:df:a5:c0:6b:dc:d9:b1:d1:62:
        93:2f:33:cb
-----BEGIN CERTIFICATE-----
MIIDijCCAnICAQIwDQYJKoZIhvcNAQEEBQAwgYExCzAJBgNVBAYTAlVTMQswCQYD
VQQIEwJDQTEVMBMGA1UEChMMT3BlbiB2U3dpdGNoMREwDwYDVQQLEwhzd2l0Y2hj
YTE7MDkGA1UEAxMyT1ZTIHN3aXRjaGNhIENBIENlcnRpZmljYXRlICgyMDEzIFNl
cCAyMSAxOToyMjoxNykwHhcNMTMwOTIxMjMyMjE4WhcNMTQwOTIxMjMyMjE4WjCB
kzELMAkGA1UEBhMCVVMxCzAJBgNVBAgTAkNBMRUwEwYDVQQKEwxPcGVuIHZTd2l0
Y2gxHzAdBgNVBAsTFk9wZW4gdlN3aXRjaCBjZXJ0aWZpZXIxPzA9BgNVBAMTNnRl
c3RzL3BraS90ZXN0IGlkOmUxMjM2ZDI0LWQzYmUtNDkwNS05MGNhLTQxM2U0N2I5
ZTMzYzCCASIwDQYJKoZIhvcNAQEBBQADggEPADCCAQoCggEBAMABJqyMmFKiw+5v
Ms8sFNVtA8Z8kzxKajiyJWABJYH4CDzh1FACnvo/2nOUqHeceL7hUAG4kzwiePbX
OCWQfIodKrHfS8707+kQ7wrs9/+g8kdwaSoBIboycb36Csk/ZMWCyKA7C2dCZrBX
0IDx6yaT8mjv7FGyQB7vj2fIJ66t0mq8e1qPOtXXbM7ghMaVF/ORNtjIA9rJUGdI
8BZ6A6Ocr1Nt+XWXZi8FmNIbV7xFAWbj3ucy9CP8WZkWFouCzGfHMHVy6HjQuHpj
Kc7Yphf/O96NnObS9pANptYFOcQ12Uf5b4y4boSO0e9RJkkQj9PJuoFZutMa503m
krr6fDUCAwEAATANBgkqhkiG9w0BAQQFAAOCAQEAO+NOqJNBdjldT+ptOJUxTT71
iz4ZSVXIFITT3s2FzexNKW5OMccPrxfHiM9NZLwTfAAnd4dfqyjrLZs2JKFegms7
utl7HyxrXulaMAaQZJ3HukFOzAXAdjGz2QrKcDYTvZ3TJqWVAzAutbloJgkzT/gd
jn24MtXHxhuHI0SMaqNuRIbYIJRzwY+sm0JrPVB8XGN7Oa5K19kQGxZMQvnyhIoP
TUvvp/O6BPWmaFVsb1u6Qx7wvB+sOP9vRp/MibXy7sCQcSeSW2/s63KZqylAgbem
VdI/mbohSSCXZs8xc0urA+wo5IfflUe1M6E/m+FIMKlG36XAa9zZsdFiky8zyw==
-----END CERTIFICATE-----
