Certificate:
    Data:
        Version: 1 (0x0)
        Serial Number: 3 (0x3)
        Signature Algorithm: md5WithRSAEncryption
        Issuer: C=US, ST=CA, O=Open vSwitch, OU=switchca, CN=OVS switchca CA Certificate (2013 Sep 21 19:22:17)
        Validity
            Not Before: Sep 21 23:22:18 2013 GMT
            Not After : Sep 21 23:22:18 2014 GMT
        Subject: C=US, ST=CA, O=Open vSwitch, OU=Open vSwitch certifier, CN=tests/pki/test2 id:3856c86e-e3da-4843-84f6-9fe495330614
        Subject Public Key Info:
            Public Key Algorithm: rsaEncryption
                Public-Key: (2048 bit)
                Modulus:
                    00:cf:4c:69:64:e7:0f:2f:01:f5:a1:6b:18:1a:d2:
                    3b:0d:27:b4:9b:c3:53:90:bd:ee:a8:c9:eb:f1:fc:
                    4e:77:ae:f3:4f:9b:5f:0b:68:9b:cf:68:3a:5f:eb:
                    98:80:a9:b2:60:bc:73:85:b7:9e:71:08:72:7e:79:
                    c6:b8:37:b1:62:3c:3a:b3:8e:5a:9d:2f:8f:1b:22:
                    ed:fa:16:22:03:3b:7f:d3:a1:23:72:38:b8:b3:9b:
                    8f:ee:09:dc:18:08:2f:fb:6c:d8:40:ac:ad:08:10:
                    83:ad:61:f7:c7:f8:89:8c:f1:c5:95:4a:48:19:b4:
                    6e:53:fe:d5:d0:c3:cd:f5:ba:f7:28:18:bc:34:29:
                    ab:09:a5:27:81:63:ed:18:7b:9c:c3:d2:fb:6e:fd:
                    1f:69:a6:85:cc:98:cb:dd:7b:22:40:04:43:c7:2a:
                    95:79:83:69:74:b5:33:37:6f:fd:ef:64:22:33:00:
                    e0:d2:7e:13:c7:ee:43:c4:27:bb:5e:44:94:0d:04:
                    d5:2c:fc:d6:fa:7d:e8:d3:42:ab:19:29:da:0b:f8:
                    18:ac:0e:41:5b:a1:2c:ab:50:76:64:48:fa:4e:e8:
                    46:0b:4f:03:fc:fd:b9:f3:d4:0f:ee:af:d4:b7:4f:
                    78:6b:a6:a5:92:74:c5:ff:34:b9:84:55:de:4e:ee:
                    d8:47
                Exponent: 65537 (0x10001)
    Signature Algorithm: md5WithRSAEncryption
        84:0a:03:0f:a8:51:c4:8f:ad:25:74:1a:ad:4c:62:22:98:9c:
        40:c7:26:cc:c4:b5:a5:e0:7a:fa:27:9b:46:84:27:a8:97:e1:
        eb:63:c3:fd:84:53:95:fc:2c:d2:66:32:b4:2d:2b:53:4e:f2:
        e3:d2:a9:59:2f:b4:9d:2c:4b:38:d8:de:77:cd:f7:92:a8:ec:
        25:a1:40:cd:56:99:cd:f4:b7:e4:68:b2:7d:3f:fc:32:92:34:
        d2:3b:8d:a5:6f:6d:b9:2e:52:11:9b:7a:e2:df:56:79:aa:c8:
        c9:82:91:58:ed:40:8e:72:fb:67:d1:c9:84:c0:0c:ee:31:fa:
        0d:93:e9:72:a6:bc:cb:5a:f7:42:31:f4:8b:f1:21:ad:56:e7:
        18:77:4d:18:3d:71:a3:64:81:50:c7:6f:44:1b:2b:f2:43:ab:
        c6:78:9a:3b:2b:89:4c:10:8d:0f:9d:03:ea:c0:14:2b:ad:96:
        86:44:69:c0:5f:3e:bc:54:2e:11:f8:13:c4:e0:f4:95:3b:43:
        19:6c:40:e8:50:03:57:9f:d8:6b:4b:42:40:b4:e6:8f:ce:b3:
        69:3b:43:06:9c:bf:e1:92:ca:89:f5:ee:18:bf:ae:b1:bb:c3:
        31:63:65:40:38:75:c2:18:1b:c4:c4:43:43:ba:18:a2:11:3d:
        99:ee:89:00
-----BEGIN CERTIFICATE-----
MIIDizCCAnMCAQMwDQYJKoZIhvcNAQEEBQAwgYExCzAJBgNVBAYTAlVTMQswCQYD
VQQIEwJDQTEVMBMGA1UEChMMT3BlbiB2U3dpdGNoMREwDwYDVQQLEwhzd2l0Y2hj
YTE7MDkGA1UEAxMyT1ZTIHN3aXRjaGNhIENBIENlcnRpZmljYXRlICgyMDEzIFNl
cCAyMSAxOToyMjoxNykwHhcNMTMwOTIxMjMyMjE4WhcNMTQwOTIxMjMyMjE4WjCB
lDELMAkGA1UEBhMCVVMxCzAJBgNVBAgTAkNBMRUwEwYDVQQKEwxPcGVuIHZTd2l0
Y2gxHzAdBgNVBAsTFk9wZW4gdlN3aXRjaCBjZXJ0aWZpZXIxQDA+BgNVBAMTN3Rl
c3RzL3BraS90ZXN0MiBpZDozODU2Yzg2ZS1lM2RhLTQ4NDMtODRmNi05ZmU0OTUz
MzA2MTQwggEiMA0GCSqGSIb3DQEBAQUAA4IBDwAwggEKAoIBAQDPTGlk5w8vAfWh
axga0jsNJ7Sbw1OQve6oyevx/E53rvNPm18LaJvPaDpf65iAqbJgvHOFt55xCHJ+
eca4N7FiPDqzjlqdL48bIu36FiIDO3/ToSNyOLizm4/uCdwYCC/7bNhArK0IEIOt
YffH+ImM8cWVSkgZtG5T/tXQw831uvcoGLw0KasJpSeBY+0Ye5zD0vtu/R9ppoXM
mMvdeyJABEPHKpV5g2l0tTM3b/3vZCIzAODSfhPH7kPEJ7teRJQNBNUs/Nb6fejT
QqsZKdoL+BisDkFboSyrUHZkSPpO6EYLTwP8/bnz1A/ur9S3T3hrpqWSdMX/NLmE
Vd5O7thHAgMBAAEwDQYJKoZIhvcNAQEEBQADggEBAIQKAw+oUcSPrSV0Gq1MYiKY
nEDHJszEtaXgevonm0aEJ6iX4etjw/2EU5X8LNJmMrQtK1NO8uPSqVkvtJ0sSzjY
3nfN95Ko7CWhQM1Wmc30t+Rosn0//DKSNNI7jaVvbbkuUhGbeuLfVnmqyMmCkVjt
QI5y+2fRyYTADO4x+g2T6XKmvMta90Ix9IvxIa1W5xh3TRg9caNkgVDHb0QbK/JD
q8Z4mjsriUwQjQ+dA+rAFCutloZEacBfPrxULhH4E8Tg9JU7QxlsQOhQA1ef2GtL
QkC05o/Os2k7Qwacv+GSyon17hi/rrG7wzFjZUA4dcIYG8TEQ0O6GKIRPZnuiQA=
-----END CERTIFICATE-----
